target datalayout = "e-m:e-p270:32:32-p271:32:32-p272:64:64-i64:64-i128:128-f80:128-n8:16:32:64-S128"
target triple = "x86_64-pc-linux-gnu"

%struct.stbte_tilemap = type { [200 x [200 x [8 x i16]]], [200 x [200 x [1 x float]]], i32, i32, i32, i32, i32, i32, i32, i32, i32, i32, i32, i32, [100 x ptr], i32, i32, ptr, i32, i32, i32, i8, i8, i8, i8, i32, i32, i32, [8 x %struct.stbte__layer], i32, i32, i32, i32, i32, i32, i32, i32, i16, [4096 x i8], ptr }
%struct.stbte__layer = type { ptr, i32, i32 }

; Function Attrs: nounwind uwtable
define void @stbte__write_redo(ptr noundef %0, i16 noundef signext %1) #0 {
  %3 = alloca ptr, align 8
  %4 = alloca i16, align 2
  %5 = alloca i32, align 4
  store ptr %0, ptr %3, align 8, !tbaa !25
  store i16 %1, ptr %4, align 2, !tbaa !22
  call void @llvm.lifetime.start.p0(i64 4, ptr %5) #8
  %6 = load ptr, ptr %3, align 8, !tbaa !25
  %7 = getelementptr inbounds nuw %struct.stbte_tilemap, ptr %6, i32 0, i32 34
  %8 = load i32, ptr %7, align 4, !tbaa !45
  store i32 %8, ptr %5, align 4, !tbaa !13
  %9 = load i16, ptr %4, align 2, !tbaa !22
  %10 = load ptr, ptr %3, align 8, !tbaa !25
  %11 = getelementptr inbounds nuw %struct.stbte_tilemap, ptr %10, i32 0, i32 39
  %12 = load ptr, ptr %11, align 8, !tbaa !29
  %13 = load i32, ptr %5, align 4, !tbaa !13
  %14 = sext i32 %13 to i64
  %15 = getelementptr inbounds i16, ptr %12, i64 %14
  store i16 %9, ptr %15, align 2, !tbaa !22
  %16 = load i32, ptr %5, align 4, !tbaa !13
  %17 = sub nsw i32 %16, 1
  %18 = and i32 %17, 8388607
  %19 = load ptr, ptr %3, align 8, !tbaa !25
  %20 = getelementptr inbounds nuw %struct.stbte_tilemap, ptr %19, i32 0, i32 34
  store i32 %18, ptr %20, align 4, !tbaa !45
  %21 = load ptr, ptr %3, align 8, !tbaa !25
  %22 = getelementptr inbounds nuw %struct.stbte_tilemap, ptr %21, i32 0, i32 36
  %23 = load i32, ptr %22, align 4, !tbaa !44
  %24 = icmp slt i32 %23, 8388606
  %25 = zext i1 %24 to i32
  %26 = load ptr, ptr %3, align 8, !tbaa !25
  %27 = getelementptr inbounds nuw %struct.stbte_tilemap, ptr %26, i32 0, i32 36
  %28 = load i32, ptr %27, align 4, !tbaa !44
  %29 = add nsw i32 %28, %25
  store i32 %29, ptr %27, align 4, !tbaa !44
  %30 = load ptr, ptr %3, align 8, !tbaa !25
  %31 = getelementptr inbounds nuw %struct.stbte_tilemap, ptr %30, i32 0, i32 35
  %32 = load i32, ptr %31, align 8, !tbaa !43
  %33 = icmp sgt i32 %32, 0
  %34 = zext i1 %33 to i32
  %35 = load ptr, ptr %3, align 8, !tbaa !25
  %36 = getelementptr inbounds nuw %struct.stbte_tilemap, ptr %35, i32 0, i32 35
  %37 = load i32, ptr %36, align 8, !tbaa !43
  %38 = sub nsw i32 %37, %34
  store i32 %38, ptr %36, align 8, !tbaa !43
  %39 = load ptr, ptr %3, align 8, !tbaa !25
  %40 = getelementptr inbounds nuw %struct.stbte_tilemap, ptr %39, i32 0, i32 21
  store i8 0, ptr %40, align 4, !tbaa !51
  call void @llvm.lifetime.end.p0(i64 4, ptr %5) #8
  ret void
}

; Function Attrs: nounwind uwtable
define void @stbte__redo_record_prop(ptr noundef %0, i32 noundef %1, i32 noundef %2, i32 noundef %3, i16 noundef signext %4, i16 noundef signext %5) #0 {
  %7 = alloca ptr, align 8
  %8 = alloca i32, align 4
  %9 = alloca i32, align 4
  %10 = alloca i32, align 4
  %11 = alloca i16, align 2
  %12 = alloca i16, align 2
  store ptr %0, ptr %7, align 8, !tbaa !25
  store i32 %1, ptr %8, align 4, !tbaa !13
  store i32 %2, ptr %9, align 4, !tbaa !13
  store i32 %3, ptr %10, align 4, !tbaa !13
  store i16 %4, ptr %11, align 2, !tbaa !22
  store i16 %5, ptr %12, align 2, !tbaa !22
  %13 = load ptr, ptr %7, align 8, !tbaa !25
  %14 = load i16, ptr %12, align 2, !tbaa !22
  call void @stbte__write_redo(ptr noundef %13, i16 noundef signext %14)
  %15 = load ptr, ptr %7, align 8, !tbaa !25
  %16 = load i16, ptr %11, align 2, !tbaa !22
  call void @stbte__write_redo(ptr noundef %15, i16 noundef signext %16)
  %17 = load ptr, ptr %7, align 8, !tbaa !25
  %18 = load i32, ptr %8, align 4, !tbaa !13
  %19 = trunc i32 %18 to i16
  call void @stbte__write_redo(ptr noundef %17, i16 noundef signext %19)
  %20 = load ptr, ptr %7, align 8, !tbaa !25
  %21 = load i32, ptr %9, align 4, !tbaa !13
  %22 = trunc i32 %21 to i16
  call void @stbte__write_redo(ptr noundef %20, i16 noundef signext %22)
  %23 = load ptr, ptr %7, align 8, !tbaa !25
  %24 = load i32, ptr %10, align 4, !tbaa !13
  %25 = add nsw i32 256, %24
  %26 = trunc i32 %25 to i16
  call void @stbte__write_redo(ptr noundef %23, i16 noundef signext %26)
  ret void
}