; Function Attrs: mustprogress nofree norecurse nosync nounwind willreturn memory(write, argmem: readwrite, inaccessiblemem: none) uwtable
define void @stbte__redo_record_prop(ptr noundef captures(none) initializes((800876, 800877)) %0, i32 noundef %1, i32 noundef %2, i32 noundef %3, i16 noundef signext %4, i16 noundef signext %5) local_unnamed_addr #14 {
  %7 = getelementptr inbounds nuw i8, ptr %0, i64 801044
  %8 = load i32, ptr %7, align 4, !tbaa !43
  %9 = getelementptr inbounds nuw i8, ptr %0, i64 805160
  %10 = load ptr, ptr %9, align 8, !tbaa !27
  %11 = sext i32 %8 to i64
  %12 = getelementptr inbounds i16, ptr %10, i64 %11
  store i16 %5, ptr %12, align 2, !tbaa !21
  %13 = add i32 %8, 8388607
  %14 = and i32 %13, 8388607
  %15 = getelementptr inbounds nuw i8, ptr %0, i64 801052
  %16 = load i32, ptr %15, align 4, !tbaa !42
  %17 = icmp slt i32 %16, 8388606
  %18 = zext i1 %17 to i32
  %19 = add nsw i32 %16, %18
  %20 = getelementptr inbounds nuw i8, ptr %0, i64 801048
  %21 = load i32, ptr %20, align 8, !tbaa !41
  %22 = icmp sgt i32 %21, 0
  %.neg.i = sext i1 %22 to i32
  %23 = add i32 %21, %.neg.i
  %24 = getelementptr inbounds nuw i8, ptr %0, i64 800876
  %25 = zext nneg i32 %14 to i64
  %26 = getelementptr inbounds nuw i16, ptr %10, i64 %25
  store i16 %4, ptr %26, align 2, !tbaa !21
  %27 = add i32 %8, 8388606
  %28 = and i32 %27, 8388607
  %29 = icmp slt i32 %19, 8388606
  %30 = zext i1 %29 to i32
  %31 = add nsw i32 %19, %30
  %32 = icmp sgt i32 %23, 0
  %.neg.i9 = sext i1 %32 to i32
  %33 = add i32 %23, %.neg.i9
  %34 = trunc i32 %1 to i16
  %35 = zext nneg i32 %28 to i64
  %36 = getelementptr inbounds nuw i16, ptr %10, i64 %35
  store i16 %34, ptr %36, align 2, !tbaa !21
  %37 = add i32 %8, 8388605
  %38 = and i32 %37, 8388607
  %39 = icmp slt i32 %31, 8388606
  %40 = zext i1 %39 to i32
  %41 = add nsw i32 %31, %40
  %42 = icmp sgt i32 %33, 0
  %.neg.i10 = sext i1 %42 to i32
  %43 = add i32 %33, %.neg.i10
  %44 = trunc i32 %2 to i16
  %45 = zext nneg i32 %38 to i64
  %46 = getelementptr inbounds nuw i16, ptr %10, i64 %45
  store i16 %44, ptr %46, align 2, !tbaa !21
  %47 = add i32 %8, 8388604
  %48 = and i32 %47, 8388607
  %49 = icmp slt i32 %41, 8388606
  %50 = zext i1 %49 to i32
  %51 = add nsw i32 %41, %50
  %52 = icmp sgt i32 %43, 0
  %.neg.i11 = sext i1 %52 to i32
  %53 = add i32 %43, %.neg.i11
  %54 = trunc i32 %3 to i16
  %55 = add i16 %54, 256
  %56 = zext nneg i32 %48 to i64
  %57 = getelementptr inbounds nuw i16, ptr %10, i64 %56
  store i16 %55, ptr %57, align 2, !tbaa !21
  %58 = add i32 %8, 8388603
  %59 = and i32 %58, 8388607
  store i32 %59, ptr %7, align 4, !tbaa !43
  %60 = icmp slt i32 %51, 8388606
  %61 = zext i1 %60 to i32
  %62 = add nsw i32 %51, %61
  store i32 %62, ptr %15, align 4, !tbaa !42
  %63 = icmp sgt i32 %53, 0
  %.neg.i12 = sext i1 %63 to i32
  %64 = add i32 %53, %.neg.i12
  store i32 %64, ptr %20, align 8, !tbaa !41
  store i8 0, ptr %24, align 4, !tbaa !45
  ret void
}